EXPORTS
	_ZN13CSVGTUIDialog15AssignImageDataERK7TDesC16P6HBufC8 @ 1 NONAME
	_ZN13CSVGTUIDialog4NewLEv @ 2 NONAME
	_ZN13CSVGTUIDialog5NewLCEv @ 3 NONAME
	_ZN16CSVGTCustControl4NewLER5RFileP16MSvgtAppObserverP24MSVGTProgressBarDrawImplP12MSVGTMSKImplP28MSvgtApplicationExitObserveriPK11CCoeControli @ 4 NONAME
	_ZN18CSVGTThumbnailUtil19GenerateThumbnailLDER5RFileR10CFbsBitmapS3_ @ 5 NONAME
	_ZTI10CSvgtEvent @ 6 NONAME ; #<TI>#
	_ZTI13CSVGTUIDialog @ 7 NONAME ; #<TI>#
	_ZTI14CSVGTDrmHelper @ 8 NONAME ; #<TI>#
	_ZTI16CSVGTCustControl @ 9 NONAME ; #<TI>#
	_ZTI18CSVGTThumbnailUtil @ 10 NONAME ; #<TI>#
	_ZTI19CSvgtEventHandlerAO @ 11 NONAME ; #<TI>#
	_ZTI21CSVGTPointerHideTimer @ 12 NONAME ; #<TI>#
	_ZTI21CSVGTProgressBarTimer @ 13 NONAME ; #<TI>#
	_ZTI21CSvgtDecoratorControl @ 14 NONAME ; #<TI>#
	_ZTI21CSvgtThreadController @ 15 NONAME ; #<TI>#
	_ZTV10CSvgtEvent @ 16 NONAME ; #<VT>#
	_ZTV13CSVGTUIDialog @ 17 NONAME ; #<VT>#
	_ZTV14CSVGTDrmHelper @ 18 NONAME ; #<VT>#
	_ZTV16CSVGTCustControl @ 19 NONAME ; #<VT>#
	_ZTV18CSVGTThumbnailUtil @ 20 NONAME ; #<VT>#
	_ZTV19CSvgtEventHandlerAO @ 21 NONAME ; #<VT>#
	_ZTV21CSVGTPointerHideTimer @ 22 NONAME ; #<VT>#
	_ZTV21CSVGTProgressBarTimer @ 23 NONAME ; #<VT>#
	_ZTV21CSvgtDecoratorControl @ 24 NONAME ; #<VT>#
	_ZTV21CSvgtThreadController @ 25 NONAME ; #<VT>#
	_ZN16CSVGTCustControl11AddListenerEP23MSvgCustControlListener20TCustControlListener @ 26 NONAME

